target datalayout = "e-m:e-p270:32:32-p271:32:32-p272:64:64-i64:64-i128:128-f80:128-n8:16:32:64-S128"
target triple = "x86_64-pc-linux-gnu"

%"class.std::shared_ptr" = type { %"class.std::__shared_ptr" }
%"class.std::__shared_ptr" = type { ptr, %"class.std::__shared_count" }
%"class.std::__shared_count" = type { ptr }
%"class.open_spiel::hearts::HeartsState" = type { %"class.open_spiel::State.base", i8, i8, i8, i8, i8, i8, i8, i8, i32, i32, i8, i32, i32, i32, %"struct.std::array", %"struct.std::array.29", %"struct.std::array.29", %"class.std::vector.35", %"class.std::vector.40" }
%"class.open_spiel::State.base" = type <{ ptr, %"class.std::shared_ptr", i32, i32, %"class.std::vector", i32 }>
%"class.std::vector" = type { %"struct.std::_Vector_base" }
%"struct.std::_Vector_base" = type { %"struct.std::_Vector_base<open_spiel::State::PlayerAction, std::allocator<open_spiel::State::PlayerAction>>::_Vector_impl" }
%"struct.std::_Vector_base<open_spiel::State::PlayerAction, std::allocator<open_spiel::State::PlayerAction>>::_Vector_impl" = type { %"struct.std::_Vector_base<open_spiel::State::PlayerAction, std::allocator<open_spiel::State::PlayerAction>>::_Vector_impl_data" }
%"struct.std::_Vector_base<open_spiel::State::PlayerAction, std::allocator<open_spiel::State::PlayerAction>>::_Vector_impl_data" = type { ptr, ptr, ptr }
%"struct.std::array" = type { [13 x %"class.open_spiel::hearts::Trick"] }
%"class.open_spiel::hearts::Trick" = type { i8, i32, i32, i32, i32, i32, %"class.std::vector.24" }
%"class.std::vector.24" = type { %"struct.std::_Vector_base.25" }
%"struct.std::_Vector_base.25" = type { %"struct.std::_Vector_base<int, std::allocator<int>>::_Vector_impl" }
%"struct.std::_Vector_base<int, std::allocator<int>>::_Vector_impl" = type { %"struct.std::_Vector_base<int, std::allocator<int>>::_Vector_impl_data" }
%"struct.std::_Vector_base<int, std::allocator<int>>::_Vector_impl_data" = type { ptr, ptr, ptr }
%"struct.std::array.29" = type { [52 x %"class.absl::debian2::optional.30"] }
%"class.absl::debian2::optional.30" = type { %"class.absl::debian2::optional_internal::optional_data.31" }
%"class.absl::debian2::optional_internal::optional_data.31" = type { %"class.absl::debian2::optional_internal::optional_data_base.32" }
%"class.absl::debian2::optional_internal::optional_data_base.32" = type { %"class.absl::debian2::optional_internal::optional_data_dtor_base.33" }
%"class.absl::debian2::optional_internal::optional_data_dtor_base.33" = type { i8, %union.anon.34 }
%union.anon.34 = type { i32 }
%"class.std::vector.35" = type { %"struct.std::_Vector_base.36" }
%"struct.std::_Vector_base.36" = type { %"struct.std::_Vector_base<std::vector<int>, std::allocator<std::vector<int>>>::_Vector_impl" }
%"struct.std::_Vector_base<std::vector<int>, std::allocator<std::vector<int>>>::_Vector_impl" = type { %"struct.std::_Vector_base<std::vector<int>, std::allocator<std::vector<int>>>::_Vector_impl_data" }
%"struct.std::_Vector_base<std::vector<int>, std::allocator<std::vector<int>>>::_Vector_impl_data" = type { ptr, ptr, ptr }
%"class.std::vector.40" = type { %"struct.std::_Vector_base.41" }
%"struct.std::_Vector_base.41" = type { %"struct.std::_Vector_base<double, std::allocator<double>>::_Vector_impl" }
%"struct.std::_Vector_base<double, std::allocator<double>>::_Vector_impl" = type { %"struct.std::_Vector_base<double, std::allocator<double>>::_Vector_impl_data" }
%"struct.std::_Vector_base<double, std::allocator<double>>::_Vector_impl_data" = type { ptr, ptr, ptr }

; Function Attrs: mustprogress nounwind uwtable
define linkonce_odr void @_ZN4absl7debian217optional_internal23optional_data_dtor_baseIiLb1EEC2IJiEEENS0_10in_place_tEDpOT_(ptr noundef nonnull align 4 dereferenceable(8) %0, ptr noundef nonnull align 4 dereferenceable(4) %1) unnamed_addr #5 comdat align 2 {
  %3 = alloca ptr, align 8
  %4 = alloca ptr, align 8
  store ptr %0, ptr %3, align 8
  store ptr %1, ptr %4, align 8
  %5 = load ptr, ptr %3, align 8
  %6 = getelementptr inbounds nuw %"class.absl::debian2::optional_internal::optional_data_dtor_base.33", ptr %5, i32 0, i32 0
  store i8 1, ptr %6, align 4
  %7 = getelementptr inbounds nuw %"class.absl::debian2::optional_internal::optional_data_dtor_base.33", ptr %5, i32 0, i32 1
  %8 = load ptr, ptr %4, align 8
  %9 = call noundef nonnull align 4 dereferenceable(4) ptr @_ZN4absl7debian27forwardIiEEOT_RNSt16remove_referenceIS2_E4typeE(ptr noundef nonnull align 4 dereferenceable(4) %8) #3
  %10 = load i32, ptr %9, align 4
  store i32 %10, ptr %7, align 4
  ret void
}

; Function Attrs: mustprogress uwtable
define linkonce_odr void @_ZN4absl7debian217optional_internal18optional_data_baseIiECI2NS1_23optional_data_dtor_baseIiLb1EEEIJiEEENS0_10in_place_tEDpOT_(ptr noundef nonnull align 4 dereferenceable(8) %0, ptr noundef nonnull align 4 dereferenceable(4) %1) unnamed_addr #4 comdat align 2 {
  %3 = alloca ptr, align 8
  %4 = alloca ptr, align 8
  store ptr %0, ptr %3, align 8
  store ptr %1, ptr %4, align 8
  %5 = load ptr, ptr %3, align 8
  %6 = load ptr, ptr %4, align 8
  call void @_ZN4absl7debian217optional_internal23optional_data_dtor_baseIiLb1EEC2IJiEEENS0_10in_place_tEDpOT_(ptr noundef nonnull align 4 dereferenceable(8) %5, ptr noundef nonnull align 4 dereferenceable(4) %6)
  ret void
}

; Function Attrs: mustprogress nounwind uwtable
define linkonce_odr noundef nonnull align 4 dereferenceable(4) ptr @_ZN4absl7debian28optionalIiE9referenceEv(ptr noundef nonnull align 4 dereferenceable(8) %0) #5 comdat align 2 {
  %2 = alloca ptr, align 8
  store ptr %0, ptr %2, align 8
  %3 = load ptr, ptr %2, align 8
  %4 = getelementptr inbounds nuw %"class.absl::debian2::optional_internal::optional_data_dtor_base.33", ptr %3, i32 0, i32 1
  ret ptr %4
}

; Function Attrs: mustprogress nounwind uwtable
define linkonce_odr noundef zeroext i1 @_ZNK4absl7debian28optionalIiEcvbEv(ptr noundef nonnull align 4 dereferenceable(8) %0) #5 comdat align 2 {
  %2 = alloca ptr, align 8
  store ptr %0, ptr %2, align 8
  %3 = load ptr, ptr %2, align 8
  %4 = getelementptr inbounds nuw %"class.absl::debian2::optional_internal::optional_data_dtor_base.33", ptr %3, i32 0, i32 0
  %5 = load i8, ptr %4, align 4
  %6 = trunc i8 %5 to i1
  ret i1 %6
}

; Function Attrs: mustprogress nounwind uwtable
define linkonce_odr noundef nonnull align 4 dereferenceable(8) ptr @_ZNSt14__array_traitsIN4absl7debian28optionalIiEELm52EE6_S_refERA52_KS3_m(ptr noundef nonnull align 4 dereferenceable(416) %0, i64 noundef %1) #5 comdat align 2 {
  %3 = alloca ptr, align 8
  %4 = alloca i64, align 8
  store ptr %0, ptr %3, align 8
  store i64 %1, ptr %4, align 8
  %5 = load ptr, ptr %3, align 8
  %6 = load i64, ptr %4, align 8
  %7 = getelementptr inbounds [52 x %"class.absl::debian2::optional.30"], ptr %5, i64 0, i64 %6
  ret ptr %7
}

; Function Attrs: mustprogress uwtable
define linkonce_odr void @_ZN4absl7debian217optional_internal13optional_dataIiLb1EECI2NS1_23optional_data_dtor_baseIiLb1EEEIJiEEENS0_10in_place_tEDpOT_(ptr noundef nonnull align 4 dereferenceable(8) %0, ptr noundef nonnull align 4 dereferenceable(4) %1) unnamed_addr #4 comdat align 2 {
  %3 = alloca ptr, align 8
  %4 = alloca ptr, align 8
  store ptr %0, ptr %3, align 8
  store ptr %1, ptr %4, align 8
  %5 = load ptr, ptr %3, align 8
  %6 = load ptr, ptr %4, align 8
  call void @_ZN4absl7debian217optional_internal18optional_data_baseIiECI2NS1_23optional_data_dtor_baseIiLb1EEEIJiEEENS0_10in_place_tEDpOT_(ptr noundef nonnull align 4 dereferenceable(8) %5, ptr noundef nonnull align 4 dereferenceable(4) %6)
  ret void
}

; Function Attrs: mustprogress nounwind uwtable
define linkonce_odr noundef nonnull align 4 dereferenceable(4) ptr @_ZN4absl7debian27forwardIiEEOT_RNSt16remove_referenceIS2_E4typeE(ptr noundef nonnull align 4 dereferenceable(4) %0) #5 comdat {
  %2 = alloca ptr, align 8
  store ptr %0, ptr %2, align 8
  %3 = load ptr, ptr %2, align 8
  ret ptr %3
}

; Function Attrs: mustprogress uwtable
define linkonce_odr noundef nonnull align 4 dereferenceable(4) ptr @_ZNR4absl7debian28optionalIiE5valueEv(ptr noundef nonnull align 4 dereferenceable(8) %0) #4 comdat align 2 {
  %2 = alloca ptr, align 8
  store ptr %0, ptr %2, align 8
  %3 = load ptr, ptr %2, align 8
  %4 = call noundef zeroext i1 @_ZNK4absl7debian28optionalIiEcvbEv(ptr noundef nonnull align 4 dereferenceable(8) %3) #3
  br i1 %4, label %5, label %7

5:                                                ; preds = %1
  %6 = call noundef nonnull align 4 dereferenceable(4) ptr @_ZN4absl7debian28optionalIiE9referenceEv(ptr noundef nonnull align 4 dereferenceable(8) %3)
  br label %10

7:                                                ; preds = %1
  call void @_ZN4absl7debian217optional_internal25throw_bad_optional_accessEv() #16
  unreachable

8:                                                ; No predecessors!
  %9 = call noundef nonnull align 4 dereferenceable(4) ptr @_ZN4absl7debian28optionalIiE9referenceEv(ptr noundef nonnull align 4 dereferenceable(8) %3)
  br label %10

10:                                               ; preds = %8, %5
  %11 = phi ptr [ %6, %5 ], [ %9, %8 ]
  ret ptr %11
}

; Function Attrs: mustprogress nounwind uwtable
define linkonce_odr noundef i32 @_ZN10open_spiel6hearts4CardENS0_4SuitEi(i32 noundef %0, i32 noundef %1) #5 comdat {
  %3 = alloca i32, align 4
  %4 = alloca i32, align 4
  store i32 %0, ptr %3, align 4
  store i32 %1, ptr %4, align 4
  %5 = load i32, ptr %4, align 4
  %6 = mul nsw i32 %5, 4
  %7 = load i32, ptr %3, align 4
  %8 = add nsw i32 %6, %7
  ret i32 %8
}

; Function Attrs: mustprogress nounwind uwtable
define linkonce_odr noundef nonnull align 4 dereferenceable(8) ptr @_ZNSt5arrayIN4absl7debian28optionalIiEELm52EEixEm(ptr noundef nonnull align 4 dereferenceable(416) %0, i64 noundef %1) #5 comdat align 2 {
  %3 = alloca ptr, align 8
  %4 = alloca i64, align 8
  store ptr %0, ptr %3, align 8
  store i64 %1, ptr %4, align 8
  %5 = load ptr, ptr %3, align 8
  %6 = getelementptr inbounds nuw %"struct.std::array.29", ptr %5, i32 0, i32 0
  %7 = load i64, ptr %4, align 8
  %8 = call noundef nonnull align 4 dereferenceable(8) ptr @_ZNSt14__array_traitsIN4absl7debian28optionalIiEELm52EE6_S_refERA52_KS3_m(ptr noundef nonnull align 4 dereferenceable(416) %6, i64 noundef %7) #3
  ret ptr %8
}

; Function Attrs: mustprogress uwtable
define linkonce_odr void @_ZN4absl7debian28optionalIiEC2IiTnNSt9enable_ifIXsr4absl11conjunctionINS0_8negationISt7is_sameINS0_10in_place_tENSt5decayIT_E4typeEEEENS5_IS6_IS2_SB_EEESt14is_convertibleIOS9_iESt16is_constructibleIiJSH_EEEE5valueEbE4typeELb0EEESH_(ptr noundef nonnull align 4 dereferenceable(8) %0, ptr noundef nonnull align 4 dereferenceable(4) %1) unnamed_addr #4 comdat align 2 {
  %3 = alloca ptr, align 8
  %4 = alloca ptr, align 8
  store ptr %0, ptr %3, align 8
  store ptr %1, ptr %4, align 8
  %5 = load ptr, ptr %3, align 8
  %6 = load ptr, ptr %4, align 8
  %7 = call noundef nonnull align 4 dereferenceable(4) ptr @_ZN4absl7debian27forwardIiEEOT_RNSt16remove_referenceIS2_E4typeE(ptr noundef nonnull align 4 dereferenceable(4) %6) #3
  call void @_ZN4absl7debian217optional_internal13optional_dataIiLb1EECI2NS1_23optional_data_dtor_baseIiLb1EEEIJiEEENS0_10in_place_tEDpOT_(ptr noundef nonnull align 4 dereferenceable(8) %5, ptr noundef nonnull align 4 dereferenceable(4) %7)
  ret void
}

; Function Attrs: mustprogress uwtable
define void @_ZN10open_spiel6hearts11HeartsState15ApplyDealActionEi(ptr noundef nonnull align 8 dereferenceable(1600) %0, i32 noundef %1) #4 align 2 {
  %3 = alloca ptr, align 8
  %4 = alloca i32, align 4
  %5 = alloca %"class.absl::debian2::optional.30", align 4
  %6 = alloca i32, align 4
  store ptr %0, ptr %3, align 8
  store i32 %1, ptr %4, align 4
  %7 = load ptr, ptr %3, align 8
  %8 = getelementptr inbounds nuw %"class.open_spiel::hearts::HeartsState", ptr %7, i32 0, i32 9
  %9 = load i32, ptr %8, align 4
  %10 = srem i32 %9, 4
  store i32 %10, ptr %6, align 4
  call void @_ZN4absl7debian28optionalIiEC2IiTnNSt9enable_ifIXsr4absl11conjunctionINS0_8negationISt7is_sameINS0_10in_place_tENSt5decayIT_E4typeEEEENS5_IS6_IS2_SB_EEESt14is_convertibleIOS9_iESt16is_constructibleIiJSH_EEEE5valueEbE4typeELb0EEESH_(ptr noundef nonnull align 4 dereferenceable(8) %5, ptr noundef nonnull align 4 dereferenceable(4) %6)
  %11 = getelementptr inbounds nuw %"class.open_spiel::hearts::HeartsState", ptr %7, i32 0, i32 16
  %12 = load i32, ptr %4, align 4
  %13 = sext i32 %12 to i64
  %14 = call noundef nonnull align 4 dereferenceable(8) ptr @_ZNSt5arrayIN4absl7debian28optionalIiEELm52EEixEm(ptr noundef nonnull align 4 dereferenceable(416) %11, i64 noundef %13) #3
  call void @llvm.memcpy.p0.p0.i64(ptr align 4 %14, ptr align 4 %5, i64 8, i1 false)
  %15 = getelementptr inbounds nuw %"class.open_spiel::hearts::HeartsState", ptr %7, i32 0, i32 9
  %16 = load i32, ptr %15, align 4
  %17 = add nsw i32 %16, 1
  store i32 %17, ptr %15, align 4
  %18 = getelementptr inbounds nuw %"class.open_spiel::hearts::HeartsState", ptr %7, i32 0, i32 9
  %19 = load i32, ptr %18, align 4
  %20 = icmp eq i32 %19, 52
  br i1 %20, label %21, label %40

21:                                               ; preds = %2
  %22 = getelementptr inbounds nuw %"class.open_spiel::hearts::HeartsState", ptr %7, i32 0, i32 16
  %23 = getelementptr inbounds nuw %"class.open_spiel::hearts::HeartsState", ptr %7, i32 0, i32 17
  call void @llvm.memcpy.p0.p0.i64(ptr align 8 %23, ptr align 8 %22, i64 416, i1 false)
  %24 = getelementptr inbounds nuw %"class.open_spiel::hearts::HeartsState", ptr %7, i32 0, i32 14
  %25 = load i32, ptr %24, align 8
  %26 = icmp eq i32 %25, 0
  br i1 %26, label %27, label %36

27:                                               ; preds = %21
  %28 = getelementptr inbounds nuw %"class.open_spiel::hearts::HeartsState", ptr %7, i32 0, i32 13
  store i32 3, ptr %28, align 4
  %29 = getelementptr inbounds nuw %"class.open_spiel::hearts::HeartsState", ptr %7, i32 0, i32 16
  %30 = call noundef i32 @_ZN10open_spiel6hearts4CardENS0_4SuitEi(i32 noundef 0, i32 noundef 0)
  %31 = sext i32 %30 to i64
  %32 = call noundef nonnull align 4 dereferenceable(8) ptr @_ZNSt5arrayIN4absl7debian28optionalIiEELm52EEixEm(ptr noundef nonnull align 4 dereferenceable(416) %29, i64 noundef %31) #3
  %33 = call noundef nonnull align 4 dereferenceable(4) ptr @_ZNR4absl7debian28optionalIiE5valueEv(ptr noundef nonnull align 4 dereferenceable(8) %32)
  %34 = load i32, ptr %33, align 4
  %35 = getelementptr inbounds nuw %"class.open_spiel::hearts::HeartsState", ptr %7, i32 0, i32 12
  store i32 %34, ptr %35, align 8
  br label %39

36:                                               ; preds = %21
  %37 = getelementptr inbounds nuw %"class.open_spiel::hearts::HeartsState", ptr %7, i32 0, i32 13
  store i32 2, ptr %37, align 4
  %38 = getelementptr inbounds nuw %"class.open_spiel::hearts::HeartsState", ptr %7, i32 0, i32 12
  store i32 0, ptr %38, align 8
  br label %39

39:                                               ; preds = %36, %27
  br label %40

40:                                               ; preds = %39, %2
  ret void
}