; Function Attrs: mustprogress uwtable
define void @_ZN10open_spiel6hearts11HeartsState15ApplyDealActionEi(ptr nocapture noundef nonnull align 8 dereferenceable(1600) %0, i32 noundef %1) local_unnamed_addr #4 align 2 {
  %3 = getelementptr inbounds nuw i8, ptr %0, i64 68
  %4 = load i32, ptr %3, align 4
  %5 = srem i32 %4, 4
  %6 = getelementptr inbounds nuw i8, ptr %0, i64 720
  %7 = sext i32 %1 to i64
  %8 = getelementptr inbounds [52 x %"class.absl::debian2::optional.30"], ptr %6, i64 0, i64 %7
  %.sroa.21.0.insert.ext = zext i32 %5 to i64
  %.sroa.21.0.insert.shift = shl nuw i64 %.sroa.21.0.insert.ext, 32
  %.sroa.0.0.insert.insert = or disjoint i64 %.sroa.21.0.insert.shift, 1
  store i64 %.sroa.0.0.insert.insert, ptr %8, align 8
  %9 = load i32, ptr %3, align 4
  %10 = add nsw i32 %9, 1
  store i32 %10, ptr %3, align 4
  %11 = icmp eq i32 %10, 52
  br i1 %11, label %12, label %26

12:                                               ; preds = %2
  %13 = getelementptr inbounds nuw i8, ptr %0, i64 1136
  tail call void @llvm.memcpy.p0.p0.i64(ptr noundef nonnull align 8 dereferenceable(416) %13, ptr noundef nonnull align 8 dereferenceable(416) %6, i64 416, i1 false)
  %14 = getelementptr inbounds nuw i8, ptr %0, i64 88
  %15 = load i32, ptr %14, align 8
  %16 = icmp eq i32 %15, 0
  %17 = getelementptr inbounds nuw i8, ptr %0, i64 84
  br i1 %16, label %18, label %24

18:                                               ; preds = %12
  store i32 3, ptr %17, align 4
  %19 = load i8, ptr %6, align 8
  %20 = trunc i8 %19 to i1
  br i1 %20, label %_ZNR4absl7debian28optionalIiE5valueEv.exit, label %21

21:                                               ; preds = %18
  tail call void @_ZN4absl7debian217optional_internal25throw_bad_optional_accessEv() #28
  unreachable

_ZNR4absl7debian28optionalIiE5valueEv.exit:       ; preds = %18
  %22 = getelementptr inbounds i8, ptr %0, i64 724
  %23 = load i32, ptr %22, align 4
  br label %.sink.split

24:                                               ; preds = %12
  store i32 2, ptr %17, align 4
  br label %.sink.split

.sink.split:                                      ; preds = %24, %_ZNR4absl7debian28optionalIiE5valueEv.exit
  %.sink = phi i32 [ %23, %_ZNR4absl7debian28optionalIiE5valueEv.exit ], [ 0, %24 ]
  %25 = getelementptr inbounds nuw i8, ptr %0, i64 80
  store i32 %.sink, ptr %25, align 8
  br label %26

26:                                               ; preds = %.sink.split, %2
  ret void
}